target datalayout = "e-m:e-p270:32:32-p271:32:32-p272:64:64-i64:64-i128:128-f80:128-n8:16:32:64-S128"
target triple = "x86_64-pc-linux-gnu"

%struct.sock_gres = type { ptr, ptr, i64, ptr, ptr, ptr, i64, i32, i64, i64, i8 }
%struct.gres_state = type { i32, i32, ptr, ptr, i32 }
%struct.gres_job_state = type { i32, ptr, i16, i16, i64, i64, i64, i64, i64, i16, i16, i64, i32, ptr, ptr, ptr, ptr, i32, i64, i32, ptr, ptr, ptr, ptr, ptr, ptr }
%struct.gres_node_state = type { ptr, i64, i64, i8, i8, i64, ptr, i64, ptr, i16, i32, ptr, ptr, ptr, ptr, ptr, ptr, ptr, ptr, i16, ptr, ptr, ptr, ptr }

; Function Attrs: nounwind uwtable
define internal i32 @_sock_gres_sort(ptr noundef %0, ptr noundef %1) #0 {
  %3 = alloca ptr, align 8
  %4 = alloca ptr, align 8
  %5 = alloca ptr, align 8
  %6 = alloca ptr, align 8
  %7 = alloca ptr, align 8
  %8 = alloca ptr, align 8
  %9 = alloca ptr, align 8
  %10 = alloca ptr, align 8
  %11 = alloca i32, align 4
  %12 = alloca i32, align 4
  store ptr %0, ptr %3, align 8
  store ptr %1, ptr %4, align 8
  call void @llvm.lifetime.start.p0(i64 8, ptr %5) #3
  %13 = load ptr, ptr %3, align 8
  %14 = load ptr, ptr %13, align 8
  store ptr %14, ptr %5, align 8
  call void @llvm.lifetime.start.p0(i64 8, ptr %6) #3
  %15 = load ptr, ptr %4, align 8
  %16 = load ptr, ptr %15, align 8
  store ptr %16, ptr %6, align 8
  call void @llvm.lifetime.start.p0(i64 8, ptr %7) #3
  %17 = load ptr, ptr %5, align 8
  %18 = getelementptr inbounds nuw %struct.sock_gres, ptr %17, i32 0, i32 5
  %19 = load ptr, ptr %18, align 8
  %20 = icmp ne ptr %19, null
  br i1 %20, label %21, label %27

21:                                               ; preds = %2
  %22 = load ptr, ptr %5, align 8
  %23 = getelementptr inbounds nuw %struct.sock_gres, ptr %22, i32 0, i32 5
  %24 = load ptr, ptr %23, align 8
  %25 = getelementptr inbounds nuw %struct.gres_state, ptr %24, i32 0, i32 2
  %26 = load ptr, ptr %25, align 8
  br label %28

27:                                               ; preds = %2
  br label %28

28:                                               ; preds = %27, %21
  %29 = phi ptr [ %26, %21 ], [ null, %27 ]
  store ptr %29, ptr %7, align 8
  call void @llvm.lifetime.start.p0(i64 8, ptr %8) #3
  %30 = load ptr, ptr %6, align 8
  %31 = getelementptr inbounds nuw %struct.sock_gres, ptr %30, i32 0, i32 5
  %32 = load ptr, ptr %31, align 8
  %33 = icmp ne ptr %32, null
  br i1 %33, label %34, label %40

34:                                               ; preds = %28
  %35 = load ptr, ptr %6, align 8
  %36 = getelementptr inbounds nuw %struct.sock_gres, ptr %35, i32 0, i32 5
  %37 = load ptr, ptr %36, align 8
  %38 = getelementptr inbounds nuw %struct.gres_state, ptr %37, i32 0, i32 2
  %39 = load ptr, ptr %38, align 8
  br label %41

40:                                               ; preds = %28
  br label %41

41:                                               ; preds = %40, %34
  %42 = phi ptr [ %39, %34 ], [ null, %40 ]
  store ptr %42, ptr %8, align 8
  call void @llvm.lifetime.start.p0(i64 8, ptr %9) #3
  %43 = load ptr, ptr %5, align 8
  %44 = getelementptr inbounds nuw %struct.sock_gres, ptr %43, i32 0, i32 4
  %45 = load ptr, ptr %44, align 8
  %46 = icmp ne ptr %45, null
  br i1 %46, label %47, label %53

47:                                               ; preds = %41
  %48 = load ptr, ptr %5, align 8
  %49 = getelementptr inbounds nuw %struct.sock_gres, ptr %48, i32 0, i32 4
  %50 = load ptr, ptr %49, align 8
  %51 = getelementptr inbounds nuw %struct.gres_state, ptr %50, i32 0, i32 2
  %52 = load ptr, ptr %51, align 8
  br label %54

53:                                               ; preds = %41
  br label %54

54:                                               ; preds = %53, %47
  %55 = phi ptr [ %52, %47 ], [ null, %53 ]
  store ptr %55, ptr %9, align 8
  call void @llvm.lifetime.start.p0(i64 8, ptr %10) #3
  %56 = load ptr, ptr %6, align 8
  %57 = getelementptr inbounds nuw %struct.sock_gres, ptr %56, i32 0, i32 4
  %58 = load ptr, ptr %57, align 8
  %59 = icmp ne ptr %58, null
  br i1 %59, label %60, label %66

60:                                               ; preds = %54
  %61 = load ptr, ptr %6, align 8
  %62 = getelementptr inbounds nuw %struct.sock_gres, ptr %61, i32 0, i32 4
  %63 = load ptr, ptr %62, align 8
  %64 = getelementptr inbounds nuw %struct.gres_state, ptr %63, i32 0, i32 2
  %65 = load ptr, ptr %64, align 8
  br label %67

66:                                               ; preds = %54
  br label %67

67:                                               ; preds = %66, %60
  %68 = phi ptr [ %65, %60 ], [ null, %66 ]
  store ptr %68, ptr %10, align 8
  call void @llvm.lifetime.start.p0(i64 4, ptr %11) #3
  store i32 0, ptr %11, align 4
  call void @llvm.lifetime.start.p0(i64 4, ptr %12) #3
  store i32 0, ptr %12, align 4
  %69 = load ptr, ptr %7, align 8
  %70 = icmp ne ptr %69, null
  br i1 %70, label %71, label %79

71:                                               ; preds = %67
  %72 = load ptr, ptr %7, align 8
  %73 = getelementptr inbounds nuw %struct.gres_node_state, ptr %72, i32 0, i32 9
  %74 = load i16, ptr %73, align 8
  %75 = icmp ne i16 %74, 0
  br i1 %75, label %79, label %76

76:                                               ; preds = %71
  %77 = load i32, ptr %11, align 4
  %78 = add nsw i32 %77, 2
  store i32 %78, ptr %11, align 4
  br label %79

79:                                               ; preds = %76, %71, %67
  %80 = load ptr, ptr %9, align 8
  %81 = icmp ne ptr %80, null
  br i1 %81, label %82, label %90

82:                                               ; preds = %79
  %83 = load ptr, ptr %9, align 8
  %84 = getelementptr inbounds nuw %struct.gres_job_state, ptr %83, i32 0, i32 6
  %85 = load i64, ptr %84, align 8
  %86 = icmp ne i64 %85, 0
  br i1 %86, label %90, label %87

87:                                               ; preds = %82
  %88 = load i32, ptr %11, align 4
  %89 = add nsw i32 %88, 1
  store i32 %89, ptr %11, align 4
  br label %90

90:                                               ; preds = %87, %82, %79
  %91 = load ptr, ptr %8, align 8
  %92 = icmp ne ptr %91, null
  br i1 %92, label %93, label %101

93:                                               ; preds = %90
  %94 = load ptr, ptr %8, align 8
  %95 = getelementptr inbounds nuw %struct.gres_node_state, ptr %94, i32 0, i32 9
  %96 = load i16, ptr %95, align 8
  %97 = icmp ne i16 %96, 0
  br i1 %97, label %101, label %98

98:                                               ; preds = %93
  %99 = load i32, ptr %12, align 4
  %100 = add nsw i32 %99, 2
  store i32 %100, ptr %12, align 4
  br label %101

101:                                              ; preds = %98, %93, %90
  %102 = load ptr, ptr %10, align 8
  %103 = icmp ne ptr %102, null
  br i1 %103, label %104, label %112

104:                                              ; preds = %101
  %105 = load ptr, ptr %10, align 8
  %106 = getelementptr inbounds nuw %struct.gres_job_state, ptr %105, i32 0, i32 6
  %107 = load i64, ptr %106, align 8
  %108 = icmp ne i64 %107, 0
  br i1 %108, label %112, label %109

109:                                              ; preds = %104
  %110 = load i32, ptr %12, align 4
  %111 = add nsw i32 %110, 1
  store i32 %111, ptr %12, align 4
  br label %112

112:                                              ; preds = %109, %104, %101
  %113 = call i32 @slurm_sort_int_list_asc(ptr noundef %11, ptr noundef %12)
  call void @llvm.lifetime.end.p0(i64 4, ptr %12) #3
  call void @llvm.lifetime.end.p0(i64 4, ptr %11) #3
  call void @llvm.lifetime.end.p0(i64 8, ptr %10) #3
  call void @llvm.lifetime.end.p0(i64 8, ptr %9) #3
  call void @llvm.lifetime.end.p0(i64 8, ptr %8) #3
  call void @llvm.lifetime.end.p0(i64 8, ptr %7) #3
  call void @llvm.lifetime.end.p0(i64 8, ptr %6) #3
  call void @llvm.lifetime.end.p0(i64 8, ptr %5) #3
  ret i32 %113
}