; Function Attrs: nounwind uwtable
define internal i32 @_sock_gres_sort(ptr noundef readonly captures(none) %0, ptr noundef readonly captures(none) %1) #0 {
  %3 = alloca i32, align 4
  %4 = alloca i32, align 4
  %5 = load ptr, ptr %0, align 8
  %6 = load ptr, ptr %1, align 8
  %7 = getelementptr inbounds nuw i8, ptr %5, i64 40
  %8 = load ptr, ptr %7, align 8
  %.not = icmp eq ptr %8, null
  br i1 %.not, label %12, label %9

9:                                                ; preds = %2
  %10 = getelementptr inbounds nuw i8, ptr %8, i64 8
  %11 = load ptr, ptr %10, align 8
  br label %12

12:                                               ; preds = %2, %9
  %13 = phi ptr [ %11, %9 ], [ null, %2 ]
  %14 = getelementptr inbounds nuw i8, ptr %6, i64 40
  %15 = load ptr, ptr %14, align 8
  %.not25 = icmp eq ptr %15, null
  br i1 %.not25, label %19, label %16

16:                                               ; preds = %12
  %17 = getelementptr inbounds nuw i8, ptr %15, i64 8
  %18 = load ptr, ptr %17, align 8
  br label %19

19:                                               ; preds = %12, %16
  %20 = phi ptr [ %18, %16 ], [ null, %12 ]
  %21 = getelementptr inbounds nuw i8, ptr %5, i64 32
  %22 = load ptr, ptr %21, align 8
  %.not26 = icmp eq ptr %22, null
  br i1 %.not26, label %26, label %23

23:                                               ; preds = %19
  %24 = getelementptr inbounds nuw i8, ptr %22, i64 8
  %25 = load ptr, ptr %24, align 8
  br label %26

26:                                               ; preds = %19, %23
  %27 = phi ptr [ %25, %23 ], [ null, %19 ]
  %28 = getelementptr inbounds nuw i8, ptr %6, i64 32
  %29 = load ptr, ptr %28, align 8
  %.not27 = icmp eq ptr %29, null
  br i1 %.not27, label %33, label %30

30:                                               ; preds = %26
  %31 = getelementptr inbounds nuw i8, ptr %29, i64 8
  %32 = load ptr, ptr %31, align 8
  br label %33

33:                                               ; preds = %26, %30
  %34 = phi ptr [ %32, %30 ], [ null, %26 ]
  call void @llvm.lifetime.start.p0(i64 4, ptr nonnull %3) #5
  store i32 0, ptr %3, align 4
  call void @llvm.lifetime.start.p0(i64 4, ptr nonnull %4) #5
  store i32 0, ptr %4, align 4
  %.not28 = icmp eq ptr %13, null
  br i1 %.not28, label %39, label %35

35:                                               ; preds = %33
  %36 = getelementptr inbounds nuw i8, ptr %13, i64 64
  %37 = load i16, ptr %36, align 8
  %.not29 = icmp eq i16 %37, 0
  br i1 %.not29, label %38, label %39

38:                                               ; preds = %35
  store i32 2, ptr %3, align 4
  br label %39

39:                                               ; preds = %38, %35, %33
  %40 = phi i32 [ 3, %38 ], [ 1, %35 ], [ 1, %33 ]
  %.not30 = icmp eq ptr %27, null
  br i1 %.not30, label %45, label %41

41:                                               ; preds = %39
  %42 = getelementptr inbounds nuw i8, ptr %27, i64 40
  %43 = load i64, ptr %42, align 8
  %.not31 = icmp eq i64 %43, 0
  br i1 %.not31, label %44, label %45

44:                                               ; preds = %41
  store i32 %40, ptr %3, align 4
  br label %45

45:                                               ; preds = %44, %41, %39
  %.not32 = icmp eq ptr %20, null
  br i1 %.not32, label %50, label %46

46:                                               ; preds = %45
  %47 = getelementptr inbounds nuw i8, ptr %20, i64 64
  %48 = load i16, ptr %47, align 8
  %.not33 = icmp eq i16 %48, 0
  br i1 %.not33, label %49, label %50

49:                                               ; preds = %46
  store i32 2, ptr %4, align 4
  br label %50

50:                                               ; preds = %49, %46, %45
  %51 = phi i32 [ 3, %49 ], [ 1, %46 ], [ 1, %45 ]
  %.not34 = icmp eq ptr %34, null
  br i1 %.not34, label %56, label %52

52:                                               ; preds = %50
  %53 = getelementptr inbounds nuw i8, ptr %34, i64 40
  %54 = load i64, ptr %53, align 8
  %.not35 = icmp eq i64 %54, 0
  br i1 %.not35, label %55, label %56

55:                                               ; preds = %52
  store i32 %51, ptr %4, align 4
  br label %56

56:                                               ; preds = %55, %52, %50
  %57 = call i32 @slurm_sort_int_list_asc(ptr noundef nonnull %3, ptr noundef nonnull %4) #5
  call void @llvm.lifetime.end.p0(i64 4, ptr nonnull %4) #5
  call void @llvm.lifetime.end.p0(i64 4, ptr nonnull %3) #5
  ret i32 %57
}